(lp0
(lp1
F0.0
aF0.0
aI00
aa(lp2
F-4.045084971874736
aF2.9389262614623664
aI00
aa(lp3
F-2.9998003391982015
aF12.8841452151451
aI00
aa(lp4
F10.703381525440811
aF18.985194861282103
aI00
aa(lp5
F26.883721412939764
aF7.229489815432643
aI00
aa(lp6
F24.270509831248436
aF-17.633557568774194
aI00
aa(lp7
F-3.1358538980295876
aF-29.835656861048214
aI00
aa(lp8
F-31.451448701152763
aF-9.263173030811672
aI00
aa(lp9
F-27.270310170446653
aF30.51770278391927
aI00
aa(lp10
F13.839235423470374
aF48.82085172233032
aI01
aa(lp11
F0.0
aF0.0
aI00
aa(lp12
F4.667902132486009
aF1.7918397477265013
aI00
aa(lp13
F12.439361747055717
aF-4.501364162771872
aI00
aa(lp14
F10.092844771452258
aF-19.316689271698937
aI00
aa(lp15
F-8.578763758491773
aF-26.48404826260495
aI00
aa(lp16
F-28.00741279491605
aF-10.751038486359024
aI00
aa(lp17
F-23.314378843709143
aF18.87961173149511
aI00
aa(lp18
F9.360936083692906
aF31.422489965580645
aI00
aa(lp19
F40.44677454197176
aF6.249674323587172
aI01
aa(lp20
F0.0
aF0.0
aI00
aa(lp21
F-1.3781867790849953
aF4.8063084796915945
aI00
aa(lp22
F5.5683969255049774
aF11.999706483078105
aI00
aa(lp23
F20.122832819644923
aF8.37087804908309
aI00
aa(lp24
F25.63557993598491
aF-10.854355869683284
aI00
aa(lp25
F8.269120674509985
aF-28.837850878149567
aI00
aa(lp26
F-20.839751113769914
aF-21.58019401015955
aI00
aa(lp27
F-30.487058567364905
aF12.063965347681606
aI00
aa(lp28
F-2.7007237490050287
aF40.83755736122767
aI01
aa(lp29
F0.0
aF0.0
aI00
aa(lp30
F-4.567727288213005
aF-2.033683215378999
aI00
aa(lp31
F-14.180344247596194
aF0.7226903427909965
aI00
aa(lp32
F-22.568237799657396
aF13.158253931116626
aI00
aa(lp33
F-20.477668534304325
aF33.0486918384821
aI00
aa(lp34
F-2.4941735258380433
aF50.41515109995703
aI01
aa(lp35
F0.0
aF0.0
aI00
aa(lp36
F4.9969541350954785
aF0.17449748351250485
aI00
aa(lp37
F12.8770616711627
aF-5.982117269744077
aI00
aa(lp38
F15.995737033429094
aF-20.654331280751162
aI00
aa(lp39
F6.606305777711285
aF-38.3132831379297
aI01
aa(lp40
F0.0
aF0.0
aI00
aa(lp41
F-4.285836503510562
aF-2.575190374550271
aI00
aa(lp42
F-12.857509510531685
aF-7.725571123650814
aI00
aa(lp43
F-25.715019021063366
aF-15.451142247301632
aI00
aa(lp44
F-42.85836503510561
aF-25.75190374550273
aI01
aa(lp45
F0.0
aF0.0
aI00
aa(lp46
F-4.806308479691594
aF1.3781867790849982
aI00
aa(lp47
F-7.225527435688267
aF11.081144041844965
aI00
aa(lp48
F3.5645695693915034
aF21.501019598729922
aI00
aa(lp49
F22.78980348815788
aF15.988272482389933
aI00
aa(lp50
F28.83785087814957
aF-8.269120674509983
aI00
aa(lp51
F7.257656867990033
aF-29.108871788279906
aI00
aa(lp52
F-26.386502489851136
aF-19.461564334684933
aI00
aa(lp53
F-36.06337831383785
aF19.350264716354932
aI01
aa(lp54
F0.0
aF0.0
aI00
aa(lp55
F0.5226423163382672
aF4.972609476841367
aI00
aa(lp56
F8.909347995792507
aF10.418999826991639
aI00
aa(lp57
F23.175195740219813
aF5.783744911367433
aI00
aa(lp58
F30.34255473112583
aF-12.8878636185766
aI00
aa(lp59
F17.842554731125844
aF-34.53849871318758
aI00
aa(lp60
F-11.788095486728288
aF-39.231532664394535
aI01
aa(lp61
F0.0
aF0.0
aI00
aa(lp62
F-4.851478631379982
aF-1.2096094779983375
aI00
aa(lp63
F-14.554435894139946
aF-3.6288284339950154
aI00
aa(lp64
F-29.10887178827989
aF-7.257656867990036
aI00
aa(lp65
F-48.51478631379982
aF-12.096094779983401
aI01
aa(lp66
F0.0
aF0.0
aI00
aa(lp67
F0.6958655048003284
aF4.951340343707852
aI00
aa(lp68
F9.967704050468203
aF8.697406277866971
aI00
aa(lp69
F21.787865354569036
aF-0.5375158520179024
aI00
aa(lp70
F19.00440333536773
aF-20.34287722684931
aI00
aa(lp71
F-4.1751930288019565
aF-29.708042062247117
aI00
aa(lp72
F-27.815515637003625
aF-11.238197802477373
aI00
aa(lp73
F-22.94445710340135
aF23.42118460347759
aI00
aa(lp74
F14.142897079270139
aF38.4054483401141
aI01
aa.